; Function Attrs: mustprogress uwtable
define noundef i64 @_ZNK7rocksdb19MemTableListVersion18GetTotalNumDeletesEv(ptr noundef nonnull readonly align 8 dereferenceable(88) %0) local_unnamed_addr #4 align 2 personality ptr @__gxx_personality_v0 {
  %.sroa.05.08 = load ptr, ptr %0, align 8, !tbaa !18
  %.not9 = icmp eq ptr %.sroa.05.08, %0
  br i1 %.not9, label %._crit_edge, label %.lr.ph

._crit_edge:                                      ; preds = %.lr.ph, %1
  %.0.lcssa = phi i64 [ 0, %1 ], [ %8, %.lr.ph ]
  ret i64 %.0.lcssa

.lr.ph:                                           ; preds = %1, %.lr.ph
  %.sroa.05.011 = phi ptr [ %.sroa.05.0, %.lr.ph ], [ %.sroa.05.08, %1 ]
  %.010 = phi i64 [ %8, %.lr.ph ], [ 0, %1 ]
  %2 = getelementptr inbounds nuw i8, ptr %.sroa.05.011, i64 16
  %3 = load ptr, ptr %2, align 8, !tbaa !21
  %4 = load ptr, ptr %3, align 8, !tbaa !27
  %5 = getelementptr inbounds nuw i8, ptr %4, i64 104
  %6 = load ptr, ptr %5, align 8
  %7 = tail call noundef i64 %6(ptr noundef nonnull align 8 dereferenceable(560) %3)
  %8 = add i64 %7, %.010
  %.sroa.05.0 = load ptr, ptr %.sroa.05.011, align 8, !tbaa !18
  %.not = icmp eq ptr %.sroa.05.0, %0
  br i1 %.not, label %._crit_edge, label %.lr.ph
}